target datalayout = "e-m:e-p270:32:32-p271:32:32-p272:64:64-i64:64-i128:128-f80:128-n8:16:32:64-S128"
target triple = "x86_64-pc-linux-gnu"

%"class.folly::Range" = type { ptr, ptr }
%"class.folly::Expected" = type { %"struct.folly::expected_detail::ExpectedStorage.base", [3 x i8] }
%"struct.folly::expected_detail::ExpectedStorage.base" = type <{ %union.anon.5, i8 }>
%union.anon.5 = type { i32, [16 x i8] }
%"struct.folly::expected_detail::ExpectedStorage" = type <{ %union.anon.5, i8, [3 x i8] }>

; Function Attrs: mustprogress nounwind uwtable
define linkonce_odr noundef zeroext i1 @_ZNK5folly8ExpectedINS_11IPAddressV6ENS_20IPAddressFormatErrorEE8hasValueEv(ptr noundef nonnull align 4 dereferenceable(24) %0) #3 comdat align 2 {
  %2 = alloca ptr, align 8
  store ptr %0, ptr %2, align 8, !tbaa !98
  %3 = load ptr, ptr %2, align 8
  %4 = getelementptr inbounds nuw %"struct.folly::expected_detail::ExpectedStorage", ptr %3, i32 0, i32 1
  %5 = load i8, ptr %4, align 4, !tbaa !100
  %6 = icmp eq i8 1, %5
  %7 = zext i1 %6 to i64
  %8 = call i64 @llvm.expect.i64(i64 %7, i64 1)
  %9 = icmp ne i64 %8, 0
  ret i1 %9
}

; Function Attrs: mustprogress nounwind uwtable
define noundef zeroext i1 @_ZN5folly11IPAddressV68validateENS_5RangeIPKcEE(ptr %0, ptr %1) #3 align 2 {
  %3 = alloca %"class.folly::Range", align 8
  %4 = alloca %"class.folly::Expected", align 4
  %5 = alloca %"class.folly::Range", align 8
  %6 = getelementptr inbounds nuw { ptr, ptr }, ptr %3, i32 0, i32 0
  store ptr %0, ptr %6, align 8
  %7 = getelementptr inbounds nuw { ptr, ptr }, ptr %3, i32 0, i32 1
  store ptr %1, ptr %7, align 8
  call void @llvm.lifetime.start.p0(i64 24, ptr %4) #13
  call void @llvm.memcpy.p0.p0.i64(ptr align 8 %5, ptr align 8 %3, i64 16, i1 false), !tbaa.struct !83
  %8 = getelementptr inbounds nuw { ptr, ptr }, ptr %5, i32 0, i32 0
  %9 = load ptr, ptr %8, align 8
  %10 = getelementptr inbounds nuw { ptr, ptr }, ptr %5, i32 0, i32 1
  %11 = load ptr, ptr %10, align 8
  call void @_ZN5folly11IPAddressV613tryFromStringENS_5RangeIPKcEE(ptr dead_on_unwind writable sret(%"class.folly::Expected") align 4 %4, ptr %9, ptr %11) #13
  %12 = call noundef zeroext i1 @_ZNK5folly8ExpectedINS_11IPAddressV6ENS_20IPAddressFormatErrorEE8hasValueEv(ptr noundef nonnull align 4 dereferenceable(24) %4) #13
  call void @llvm.lifetime.end.p0(i64 24, ptr %4) #13
  ret i1 %12
}