; Function Attrs: mustprogress nounwind uwtable
define noundef zeroext i1 @_ZN5folly11IPAddressV68validateENS_5RangeIPKcEE(ptr %0, ptr %1) local_unnamed_addr #11 align 2 {
  %3 = alloca %"class.folly::Expected", align 4
  call void @llvm.lifetime.start.p0(i64 24, ptr nonnull %3) #37
  call void @_ZN5folly11IPAddressV613tryFromStringENS_5RangeIPKcEE(ptr dead_on_unwind nonnull writable sret(%"class.folly::Expected") align 4 %3, ptr %0, ptr %1) #37
  %4 = getelementptr inbounds nuw i8, ptr %3, i64 20
  %5 = load i8, ptr %4, align 4, !tbaa !49
  %6 = icmp eq i8 %5, 1
  call void @llvm.lifetime.end.p0(i64 24, ptr nonnull %3) #37
  ret i1 %6
}